target datalayout = "e-m:e-p270:32:32-p271:32:32-p272:64:64-i64:64-i128:128-f80:128-n8:16:32:64-S128"
target triple = "x86_64-pc-linux-gnu"

%class.ProtoTree = type { %class.QTreeView, ptr, %class.QMenu, %class.QMenu, %class.QList, i32, %class.QList.0, %class.QPoint, ptr, ptr }
%class.QTreeView = type { %class.QAbstractItemView }
%class.QAbstractItemView = type { %class.QAbstractScrollArea }
%class.QAbstractScrollArea = type { %class.QFrame }
%class.QFrame = type { %class.QWidget }
%class.QWidget = type { %class.QObject, %class.QPaintDevice.base, ptr }
%class.QObject = type { ptr, %class.QScopedPointer }
%class.QScopedPointer = type { ptr }
%class.QPaintDevice.base = type <{ ptr, i16 }>
%class.QMenu = type { %class.QWidget }
%class.QList = type { %struct.QArrayDataPointer }
%struct.QArrayDataPointer = type { ptr, ptr, i64 }
%class.QList.0 = type { %struct.QArrayDataPointer.3 }
%struct.QArrayDataPointer.3 = type { ptr, ptr, i64 }
%class.QPoint = type { i32, i32 }
%class.QModelIndex = type { i32, i32, i64, ptr }
%class.QFlags.42 = type { i32 }
%class.QObjectData = type { ptr, ptr, ptr, %class.QList.86, i32, i32, ptr, %class.QBindingStorage }
%class.QList.86 = type { %struct.QArrayDataPointer.89 }
%struct.QArrayDataPointer.89 = type { ptr, ptr, i64 }
%class.QBindingStorage = type { ptr, ptr }

; Function Attrs: inlinehint mustprogress nounwind null_pointer_is_valid sspstrong uwtable
define linkonce_odr noundef zeroext i1 @_ZNK11QModelIndex7isValidEv(ptr noundef align 8 dereferenceable_or_null(24) %0) #5 comdat align 2 {
  %2 = alloca ptr, align 8
  store ptr %0, ptr %2, align 8
  %3 = load ptr, ptr %2, align 8
  %4 = getelementptr inbounds nuw %class.QModelIndex, ptr %3, i32 0, i32 0
  %5 = load i32, ptr %4, align 8
  %6 = icmp sge i32 %5, 0
  br i1 %6, label %7, label %15

7:                                                ; preds = %1
  %8 = getelementptr inbounds nuw %class.QModelIndex, ptr %3, i32 0, i32 1
  %9 = load i32, ptr %8, align 4
  %10 = icmp sge i32 %9, 0
  br i1 %10, label %11, label %15

11:                                               ; preds = %7
  %12 = getelementptr inbounds nuw %class.QModelIndex, ptr %3, i32 0, i32 3
  %13 = load ptr, ptr %12, align 8
  %14 = icmp ne ptr %13, null
  br label %15

15:                                               ; preds = %11, %7, %1
  %16 = phi i1 [ false, %7 ], [ false, %1 ], [ %14, %11 ]
  ret i1 %16
}

; Function Attrs: inlinehint mustprogress nounwind null_pointer_is_valid sspstrong uwtable
define linkonce_odr void @_ZN6QFlagsIN19QItemSelectionModel13SelectionFlagEEC2ES1_(ptr noundef align 4 dereferenceable_or_null(4) %0, i32 noundef %1) unnamed_addr #5 comdat align 2 {
  %3 = alloca ptr, align 8
  %4 = alloca i32, align 4
  store ptr %0, ptr %3, align 8
  store i32 %1, ptr %4, align 4
  %5 = load ptr, ptr %3, align 8
  %6 = getelementptr inbounds nuw %class.QFlags.42, ptr %5, i32 0, i32 0
  %7 = load i32, ptr %4, align 4
  store i32 %7, ptr %6, align 4
  ret void
}

; Function Attrs: mustprogress nounwind null_pointer_is_valid sspstrong uwtable
define linkonce_odr noundef ptr @_ZNK14QScopedPointerI11QObjectData21QScopedPointerDeleterIS0_EEptEv(ptr noundef align 8 dereferenceable_or_null(8) %0) #4 comdat align 2 {
  %2 = alloca ptr, align 8
  store ptr %0, ptr %2, align 8
  %3 = load ptr, ptr %2, align 8
  %4 = getelementptr inbounds nuw %class.QScopedPointer, ptr %3, i32 0, i32 0
  %5 = load ptr, ptr %4, align 8
  ret ptr %5
}

; Function Attrs: mustprogress null_pointer_is_valid sspstrong uwtable
define void @_ZN9ProtoTree12autoScrollToERK11QModelIndex(ptr noundef align 8 dereferenceable_or_null(208) %0, ptr noundef align 8 dereferenceable(24) %1) #0 align 2 {
  %3 = alloca ptr, align 8
  %4 = alloca ptr, align 8
  %5 = alloca %class.QFlags.42, align 4
  store ptr %0, ptr %3, align 8
  store ptr %1, ptr %4, align 8
  %6 = load ptr, ptr %3, align 8
  %7 = call noundef ptr @_ZNK17QAbstractItemView14selectionModelEv(ptr noundef align 8 dereferenceable_or_null(40) %6)
  %8 = load ptr, ptr %4, align 8
  call void @_ZN6QFlagsIN19QItemSelectionModel13SelectionFlagEEC2ES1_(ptr noundef align 4 dereferenceable_or_null(4) %5, i32 noundef 3) #20
  %9 = getelementptr inbounds nuw %class.QFlags.42, ptr %5, i32 0, i32 0
  %10 = load i32, ptr %9, align 4
  %11 = load ptr, ptr %7, align 8
  %12 = getelementptr inbounds ptr, ptr %11, i64 12
  %13 = load ptr, ptr %12, align 8
  call void %13(ptr noundef align 8 dereferenceable_or_null(16) %7, ptr noundef align 8 dereferenceable(24) %8, i32 %10)
  %14 = load ptr, ptr %4, align 8
  %15 = call noundef zeroext i1 @_ZNK11QModelIndex7isValidEv(ptr noundef align 8 dereferenceable_or_null(24) %14) #20
  br i1 %15, label %17, label %16

16:                                               ; preds = %2
  br label %22

17:                                               ; preds = %2
  %18 = load ptr, ptr %4, align 8
  %19 = load ptr, ptr %6, align 8
  %20 = getelementptr inbounds ptr, ptr %19, i64 61
  %21 = load ptr, ptr %20, align 8
  call void %21(ptr noundef align 8 dereferenceable_or_null(40) %6, ptr noundef align 8 dereferenceable(24) %18, i32 noundef 0)
  br label %22

22:                                               ; preds = %17, %16
  ret void
}

; Function Attrs: inlinehint mustprogress nounwind null_pointer_is_valid sspstrong uwtable
define linkonce_odr noundef ptr @_ZNK7QObject6parentEv(ptr noundef align 8 dereferenceable_or_null(16) %0) #5 comdat align 2 {
  %2 = alloca ptr, align 8
  store ptr %0, ptr %2, align 8
  %3 = load ptr, ptr %2, align 8
  %4 = getelementptr inbounds nuw %class.QObject, ptr %3, i32 0, i32 1
  %5 = call noundef ptr @_ZNK14QScopedPointerI11QObjectData21QScopedPointerDeleterIS0_EEptEv(ptr noundef align 8 dereferenceable_or_null(8) %4) #20
  %6 = getelementptr inbounds nuw %class.QObjectData, ptr %5, i32 0, i32 2
  %7 = load ptr, ptr %6, align 8
  ret ptr %7
}

; Function Attrs: mustprogress null_pointer_is_valid sspstrong uwtable
define void @_ZN9ProtoTree20selectedFieldChangedEP16FieldInformation(ptr noundef align 8 dereferenceable_or_null(208) %0, ptr noundef %1) #0 align 2 {
  %3 = alloca ptr, align 8
  %4 = alloca ptr, align 8
  %5 = alloca %class.QModelIndex, align 8
  store ptr %0, ptr %3, align 8
  store ptr %1, ptr %4, align 8
  %6 = load ptr, ptr %3, align 8
  %7 = load ptr, ptr %4, align 8
  %8 = icmp ne ptr %7, null
  br i1 %8, label %9, label %14

9:                                                ; preds = %2
  %10 = load ptr, ptr %4, align 8
  %11 = call noundef ptr @_ZNK7QObject6parentEv(ptr noundef align 8 dereferenceable_or_null(16) %10)
  %12 = icmp eq ptr %11, %6
  br i1 %12, label %13, label %14

13:                                               ; preds = %9
  br label %19

14:                                               ; preds = %9, %2
  call void @llvm.lifetime.start.p0(i64 24, ptr %5) #20
  %15 = getelementptr inbounds nuw %class.ProtoTree, ptr %6, i32 0, i32 1
  %16 = load ptr, ptr %15, align 8
  %17 = load ptr, ptr %4, align 8
  call void @_ZN14ProtoTreeModel20findFieldInformationEP16FieldInformation(ptr dead_on_unwind writable sret(%class.QModelIndex) align 8 %5, ptr noundef align 8 dereferenceable_or_null(24) %16, ptr noundef %17)
  call void @_ZN7QWidget17setUpdatesEnabledEb(ptr noundef align 8 dereferenceable_or_null(40) %6, i1 noundef zeroext false)
  %18 = call noundef ptr @_ZNK17QAbstractItemView14selectionModelEv(ptr noundef align 8 dereferenceable_or_null(40) %6)
  call void @_ZN19QItemSelectionModel14clearSelectionEv(ptr noundef align 8 dereferenceable_or_null(16) %18)
  call void @_ZN9ProtoTree12autoScrollToERK11QModelIndex(ptr noundef align 8 dereferenceable_or_null(208) %6, ptr noundef align 8 dereferenceable(24) %5)
  call void @_ZN7QWidget17setUpdatesEnabledEb(ptr noundef align 8 dereferenceable_or_null(40) %6, i1 noundef zeroext true)
  call void @llvm.lifetime.end.p0(i64 24, ptr %5) #20
  br label %19

19:                                               ; preds = %14, %13
  ret void
}