; Function Attrs: mustprogress null_pointer_is_valid sspstrong uwtable
define void @_ZN9ProtoTree20selectedFieldChangedEP16FieldInformation(ptr noundef align 8 dereferenceable_or_null(208) %0, ptr noundef %1) #0 align 2 {
  %3 = alloca %class.QModelIndex, align 8
  %.not = icmp eq ptr %1, null
  br i1 %.not, label %10, label %4

4:                                                ; preds = %2
  %5 = getelementptr inbounds nuw i8, ptr %1, i64 8
  %6 = load ptr, ptr %5, align 8
  %7 = getelementptr inbounds nuw i8, ptr %6, i64 16
  %8 = load ptr, ptr %7, align 8
  %9 = icmp eq ptr %8, %0
  br i1 %9, label %30, label %10

10:                                               ; preds = %4, %2
  call void @llvm.lifetime.start.p0(i64 24, ptr nonnull %3) #21
  %11 = getelementptr inbounds nuw i8, ptr %0, i64 40
  %12 = load ptr, ptr %11, align 8
  call void @_ZN14ProtoTreeModel20findFieldInformationEP16FieldInformation(ptr dead_on_unwind nonnull writable sret(%class.QModelIndex) align 8 %3, ptr noundef align 8 dereferenceable_or_null(24) %12, ptr noundef %1)
  call void @_ZN7QWidget17setUpdatesEnabledEb(ptr noundef align 8 dereferenceable_or_null(40) %0, i1 noundef zeroext false)
  %13 = call noundef ptr @_ZNK17QAbstractItemView14selectionModelEv(ptr noundef align 8 dereferenceable_or_null(40) %0)
  call void @_ZN19QItemSelectionModel14clearSelectionEv(ptr noundef align 8 dereferenceable_or_null(16) %13)
  %14 = call noundef ptr @_ZNK17QAbstractItemView14selectionModelEv(ptr noundef align 8 dereferenceable_or_null(208) %0)
  %15 = load ptr, ptr %14, align 8
  %16 = getelementptr inbounds nuw i8, ptr %15, i64 96
  %17 = load ptr, ptr %16, align 8
  call void %17(ptr noundef align 8 dereferenceable_or_null(16) %14, ptr noundef nonnull align 8 dereferenceable(24) %3, i32 3)
  %18 = load i32, ptr %3, align 8
  %19 = icmp sgt i32 %18, -1
  %20 = getelementptr inbounds nuw i8, ptr %3, i64 4
  %21 = load i32, ptr %20, align 4
  %22 = icmp sgt i32 %21, -1
  %or.cond.i = select i1 %19, i1 %22, i1 false
  %23 = getelementptr inbounds nuw i8, ptr %3, i64 16
  %24 = load ptr, ptr %23, align 8
  %25 = icmp ne ptr %24, null
  %or.cond8.i = select i1 %or.cond.i, i1 %25, i1 false
  br i1 %or.cond8.i, label %26, label %_ZN9ProtoTree12autoScrollToERK11QModelIndex.exit

26:                                               ; preds = %10
  %27 = load ptr, ptr %0, align 8
  %28 = getelementptr inbounds nuw i8, ptr %27, i64 488
  %29 = load ptr, ptr %28, align 8
  call void %29(ptr noundef align 8 dereferenceable_or_null(208) %0, ptr noundef nonnull align 8 dereferenceable(24) %3, i32 noundef 0)
  br label %_ZN9ProtoTree12autoScrollToERK11QModelIndex.exit

_ZN9ProtoTree12autoScrollToERK11QModelIndex.exit: ; preds = %10, %26
  call void @_ZN7QWidget17setUpdatesEnabledEb(ptr noundef align 8 dereferenceable_or_null(40) %0, i1 noundef zeroext true)
  call void @llvm.lifetime.end.p0(i64 24, ptr nonnull %3) #21
  br label %30

30:                                               ; preds = %4, %_ZN9ProtoTree12autoScrollToERK11QModelIndex.exit
  ret void
}